target datalayout = "e-m:e-p270:32:32-p271:32:32-p272:64:64-i64:64-i128:128-f80:128-n8:16:32:64-S128"
target triple = "x86_64-pc-linux-gnu"

@bad_instance_name = internal constant [51 x i8] c"'%1$s' is not allowed as an instance variable name\00", align 16

; Function Attrs: nounwind sspstrong uwtable
define internal i64 @check_setter_id(i64 noundef %0, ptr noundef %1, ptr noundef %2, ptr noundef %3, ptr noundef %4, i64 noundef %5) #0 {
  %7 = alloca i64, align 8
  %8 = alloca ptr, align 8
  %9 = alloca ptr, align 8
  %10 = alloca ptr, align 8
  %11 = alloca ptr, align 8
  %12 = alloca i64, align 8
  %13 = alloca i64, align 8
  %14 = alloca i64, align 8
  store i64 %0, ptr %7, align 8, !tbaa !11
  store ptr %1, ptr %8, align 8, !tbaa !36
  store ptr %2, ptr %9, align 8, !tbaa !44
  store ptr %3, ptr %10, align 8, !tbaa !44
  store ptr %4, ptr %11, align 8, !tbaa !50
  store i64 %5, ptr %12, align 8, !tbaa !11
  call void @llvm.lifetime.start.p0(i64 8, ptr %13) #28
  %15 = load ptr, ptr %8, align 8, !tbaa !36
  %16 = call i64 @rb_check_id(ptr noundef %15)
  store i64 %16, ptr %13, align 8, !tbaa !11
  call void @llvm.lifetime.start.p0(i64 8, ptr %14) #28
  %17 = load ptr, ptr %8, align 8, !tbaa !36
  %18 = load i64, ptr %17, align 8, !tbaa !11
  store i64 %18, ptr %14, align 8, !tbaa !11
  %19 = load i64, ptr %13, align 8, !tbaa !11
  %20 = icmp ne i64 %19, 0
  br i1 %20, label %21, label %26

21:                                               ; preds = %6
  %22 = load ptr, ptr %9, align 8, !tbaa !44
  %23 = load i64, ptr %13, align 8, !tbaa !11
  %24 = call i32 %22(i64 noundef %23)
  %25 = icmp ne i32 %24, 0
  br i1 %25, label %37, label %31

26:                                               ; preds = %6
  %27 = load ptr, ptr %10, align 8, !tbaa !44
  %28 = load i64, ptr %14, align 8, !tbaa !11
  %29 = call i32 %27(i64 noundef %28)
  %30 = icmp ne i32 %29, 0
  br i1 %30, label %37, label %31

31:                                               ; preds = %26, %21
  %32 = load ptr, ptr %11, align 8, !tbaa !50
  %33 = load i64, ptr %12, align 8, !tbaa !11
  %34 = call i64 @rb_fstring_new(ptr noundef %32, i64 noundef %33)
  %35 = load i64, ptr %7, align 8, !tbaa !11
  %36 = load i64, ptr %14, align 8, !tbaa !11
  call void @rb_name_err_raise_str(i64 noundef %34, i64 noundef %35, i64 noundef %36) #31
  unreachable

37:                                               ; preds = %26, %21
  %38 = load i64, ptr %13, align 8, !tbaa !11
  call void @llvm.lifetime.end.p0(i64 8, ptr %14) #28
  call void @llvm.lifetime.end.p0(i64 8, ptr %13) #28
  ret i64 %38
}

; Function Attrs: nounwind sspstrong uwtable
define internal i64 @rb_obj_ivar_get(i64 noundef %0, i64 noundef %1) #0 {
  %3 = alloca i64, align 8
  %4 = alloca i64, align 8
  %5 = alloca i64, align 8
  %6 = alloca i64, align 8
  %7 = alloca i32, align 4
  store i64 %0, ptr %4, align 8, !tbaa !11
  store i64 %1, ptr %5, align 8, !tbaa !11
  call void @llvm.lifetime.start.p0(i64 8, ptr %6) #28
  %8 = load i64, ptr %4, align 8, !tbaa !11
  %9 = call i64 @check_setter_id(i64 noundef %8, ptr noundef %5, ptr noundef @rb_is_instance_id, ptr noundef @rb_is_instance_name, ptr noundef @bad_instance_name, i64 noundef 50)
  store i64 %9, ptr %6, align 8, !tbaa !11
  %10 = load i64, ptr %6, align 8, !tbaa !11
  %11 = icmp ne i64 %10, 0
  br i1 %11, label %13, label %12

12:                                               ; preds = %2
  store i64 4, ptr %3, align 8
  store i32 1, ptr %7, align 4
  br label %17

13:                                               ; preds = %2
  %14 = load i64, ptr %4, align 8, !tbaa !11
  %15 = load i64, ptr %6, align 8, !tbaa !11
  %16 = call i64 @rb_ivar_get(i64 noundef %14, i64 noundef %15)
  store i64 %16, ptr %3, align 8
  store i32 1, ptr %7, align 4
  br label %17

17:                                               ; preds = %13, %12
  call void @llvm.lifetime.end.p0(i64 8, ptr %6) #28
  %18 = load i64, ptr %3, align 8
  ret i64 %18
}