; Function Attrs: nounwind sspstrong uwtable
define internal i64 @rb_obj_ivar_get(i64 noundef %0, i64 noundef %1) #2 {
  %3 = alloca i64, align 8
  store i64 %1, ptr %3, align 8, !tbaa !7
  %4 = call i64 @rb_check_id(ptr noundef nonnull %3) #23
  %5 = load i64, ptr %3, align 8, !tbaa !7
  %.not.i = icmp eq i64 %4, 0
  br i1 %.not.i, label %8, label %6

6:                                                ; preds = %2
  %7 = call i32 @rb_is_instance_id(i64 noundef %4) #23, !callees !97
  %.not12.i = icmp eq i32 %7, 0
  br i1 %.not12.i, label %10, label %check_setter_id.exit

8:                                                ; preds = %2
  %9 = call i32 @rb_is_instance_name(i64 noundef %5) #23, !callees !98
  %.not11.i = icmp eq i32 %9, 0
  br i1 %.not11.i, label %10, label %check_setter_id.exit.thread

10:                                               ; preds = %8, %6
  %11 = call i64 @rb_fstring_new(ptr noundef nonnull @bad_instance_name, i64 noundef 50) #23
  call fastcc void @rb_name_err_raise_str(i64 noundef %11, i64 noundef %0, i64 noundef %5) #27
  unreachable

check_setter_id.exit:                             ; preds = %6
  %12 = call i64 @rb_ivar_get(i64 noundef %0, i64 noundef %4) #23
  br label %check_setter_id.exit.thread

check_setter_id.exit.thread:                      ; preds = %8, %check_setter_id.exit
  %.0 = phi i64 [ %12, %check_setter_id.exit ], [ 4, %8 ]
  ret i64 %.0
}